; Listing generated by Microsoft (R) Optimizing Compiler Version 19.34.31942.0 

include listing.inc

INCLUDELIB MSVCRTD
INCLUDELIB OLDNAMES

msvcjmc	SEGMENT
__8B0F6F0C_time check@pch DB 01H
__990416BB_dateValidation@cpp DB 01H
__64F4EB01_stdafx@h DB 01H
__5DAC896E_stdafx@cpp DB 01H
msvcjmc	ENDS
PUBLIC	?__empty_global_delete@@YAXPEAX@Z		; __empty_global_delete
PUBLIC	?__empty_global_delete@@YAXPEAX_K@Z		; __empty_global_delete
PUBLIC	?dateValidation@@YAHHHH@Z			; dateValidation
PUBLIC	__JustMyCode_Default
EXTRN	?leapYear@@YAHH@Z:PROC				; leapYear
EXTRN	_RTC_CheckStackVars:PROC
EXTRN	_RTC_InitBase:PROC
EXTRN	_RTC_Shutdown:PROC
EXTRN	__CheckForDebuggerJustMyCode:PROC
;	COMDAT pdata
pdata	SEGMENT
$pdata$?__empty_global_delete@@YAXPEAX@Z DD imagerel $LN3
	DD	imagerel $LN3+41
	DD	imagerel $unwind$?__empty_global_delete@@YAXPEAX@Z
pdata	ENDS
;	COMDAT pdata
pdata	SEGMENT
$pdata$?__empty_global_delete@@YAXPEAX_K@Z DD imagerel $LN3
	DD	imagerel $LN3+46
	DD	imagerel $unwind$?__empty_global_delete@@YAXPEAX_K@Z
pdata	ENDS
;	COMDAT pdata
pdata	SEGMENT
$pdata$?dateValidation@@YAHHHH@Z DD imagerel $LN10
	DD	imagerel $LN10+281
	DD	imagerel $unwind$?dateValidation@@YAHHHH@Z
pdata	ENDS
;	COMDAT rtc$TMZ
rtc$TMZ	SEGMENT
_RTC_Shutdown.rtc$TMZ DQ FLAT:_RTC_Shutdown
rtc$TMZ	ENDS
;	COMDAT rtc$IMZ
rtc$IMZ	SEGMENT
_RTC_InitBase.rtc$IMZ DQ FLAT:_RTC_InitBase
rtc$IMZ	ENDS
;	COMDAT xdata
xdata	SEGMENT
$unwind$?dateValidation@@YAHHHH@Z DD 025053301H
	DD	0116231bH
	DD	0700f0027H
	DD	0500eH
xdata	ENDS
;	COMDAT CONST
CONST	SEGMENT
?dateValidation@@YAHHHH@Z$rtcName$0 DB 06dH		; dateValidation
	DB	06fH
	DB	06eH
	DB	074H
	DB	068H
	DB	044H
	DB	061H
	DB	079H
	DB	073H
	DB	00H
	ORG $+6
?dateValidation@@YAHHHH@Z$rtcVarDesc DD 028H		; dateValidation
	DD	030H
	DQ	FLAT:?dateValidation@@YAHHHH@Z$rtcName$0
	ORG $+48
?dateValidation@@YAHHHH@Z$rtcFrameData DD 01H		; dateValidation
	DD	00H
	DQ	FLAT:?dateValidation@@YAHHHH@Z$rtcVarDesc
CONST	ENDS
;	COMDAT xdata
xdata	SEGMENT
$unwind$?__empty_global_delete@@YAXPEAX_K@Z DD 025051801H
	DD	01132318H
	DD	0700c001dH
	DD	0500bH
xdata	ENDS
;	COMDAT xdata
xdata	SEGMENT
$unwind$?__empty_global_delete@@YAXPEAX@Z DD 025051301H
	DD	010e2313H
	DD	07007001dH
	DD	05006H
xdata	ENDS
; Function compile flags: /Odt
;	COMDAT __JustMyCode_Default
_TEXT	SEGMENT
__JustMyCode_Default PROC				; COMDAT
  00000	c2 00 00	 ret	 0
__JustMyCode_Default ENDP
_TEXT	ENDS
; Function compile flags: /Odtp /RTCsu /ZI
; File D:\1 КУРС\2sem\KPO labs\01_Командная строка_Несколько файлов\time check\time check\dateValidation.cpp
;	COMDAT ?dateValidation@@YAHHHH@Z
_TEXT	SEGMENT
monthDays$ = 8
day$ = 304
month$ = 312
year$ = 320
?dateValidation@@YAHHHH@Z PROC				; dateValidation, COMDAT

; 5    : {

$LN10:
  00000	44 89 44 24 18	 mov	 DWORD PTR [rsp+24], r8d
  00005	89 54 24 10	 mov	 DWORD PTR [rsp+16], edx
  00009	89 4c 24 08	 mov	 DWORD PTR [rsp+8], ecx
  0000d	55		 push	 rbp
  0000e	57		 push	 rdi
  0000f	48 81 ec 38 01
	00 00		 sub	 rsp, 312		; 00000138H
  00016	48 8d 6c 24 20	 lea	 rbp, QWORD PTR [rsp+32]
  0001b	48 8d 7c 24 20	 lea	 rdi, QWORD PTR [rsp+32]
  00020	b9 16 00 00 00	 mov	 ecx, 22
  00025	b8 cc cc cc cc	 mov	 eax, -858993460		; ccccccccH
  0002a	f3 ab		 rep stosd
  0002c	8b 8c 24 58 01
	00 00		 mov	 ecx, DWORD PTR [rsp+344]
  00033	48 8d 0d 00 00
	00 00		 lea	 rcx, OFFSET FLAT:__990416BB_dateValidation@cpp
  0003a	e8 00 00 00 00	 call	 __CheckForDebuggerJustMyCode

; 6    : 	int monthDays[12] = { 31, 28, 31, 30, 31, 30, 31, 31, 30, 31, 30, 31 };

  0003f	c7 45 08 1f 00
	00 00		 mov	 DWORD PTR monthDays$[rbp], 31
  00046	c7 45 0c 1c 00
	00 00		 mov	 DWORD PTR monthDays$[rbp+4], 28
  0004d	c7 45 10 1f 00
	00 00		 mov	 DWORD PTR monthDays$[rbp+8], 31
  00054	c7 45 14 1e 00
	00 00		 mov	 DWORD PTR monthDays$[rbp+12], 30
  0005b	c7 45 18 1f 00
	00 00		 mov	 DWORD PTR monthDays$[rbp+16], 31
  00062	c7 45 1c 1e 00
	00 00		 mov	 DWORD PTR monthDays$[rbp+20], 30
  00069	c7 45 20 1f 00
	00 00		 mov	 DWORD PTR monthDays$[rbp+24], 31
  00070	c7 45 24 1f 00
	00 00		 mov	 DWORD PTR monthDays$[rbp+28], 31
  00077	c7 45 28 1e 00
	00 00		 mov	 DWORD PTR monthDays$[rbp+32], 30
  0007e	c7 45 2c 1f 00
	00 00		 mov	 DWORD PTR monthDays$[rbp+36], 31
  00085	c7 45 30 1e 00
	00 00		 mov	 DWORD PTR monthDays$[rbp+40], 30
  0008c	c7 45 34 1f 00
	00 00		 mov	 DWORD PTR monthDays$[rbp+44], 31

; 7    : 	if (leapYear(year) == 1)

  00093	8b 8d 40 01 00
	00		 mov	 ecx, DWORD PTR year$[rbp]
  00099	e8 00 00 00 00	 call	 ?leapYear@@YAHH@Z	; leapYear
  0009e	83 f8 01	 cmp	 eax, 1
  000a1	75 11		 jne	 SHORT $LN2@dateValida

; 8    : 		monthDays[1] = 29;

  000a3	b8 04 00 00 00	 mov	 eax, 4
  000a8	48 6b c0 01	 imul	 rax, rax, 1
  000ac	c7 44 05 08 1d
	00 00 00	 mov	 DWORD PTR monthDays$[rbp+rax], 29
$LN2@dateValida:

; 9    : 
; 10   : 	if (month <= 0 || month > 12)

  000b4	83 bd 38 01 00
	00 00		 cmp	 DWORD PTR month$[rbp], 0
  000bb	7e 09		 jle	 SHORT $LN5@dateValida
  000bd	83 bd 38 01 00
	00 0c		 cmp	 DWORD PTR month$[rbp], 12
  000c4	7e 09		 jle	 SHORT $LN3@dateValida
$LN5@dateValida:

; 11   : 		return 1;

  000c6	b8 01 00 00 00	 mov	 eax, 1
  000cb	eb 2c		 jmp	 SHORT $LN1@dateValida
  000cd	eb 2a		 jmp	 SHORT $LN4@dateValida
$LN3@dateValida:

; 12   : 	else if (day <= 0 || day > monthDays[month - 1])

  000cf	83 bd 30 01 00
	00 00		 cmp	 DWORD PTR day$[rbp], 0
  000d6	7e 16		 jle	 SHORT $LN8@dateValida
  000d8	8b 85 38 01 00
	00		 mov	 eax, DWORD PTR month$[rbp]
  000de	ff c8		 dec	 eax
  000e0	48 98		 cdqe
  000e2	8b 44 85 08	 mov	 eax, DWORD PTR monthDays$[rbp+rax*4]
  000e6	39 85 30 01 00
	00		 cmp	 DWORD PTR day$[rbp], eax
  000ec	7e 09		 jle	 SHORT $LN6@dateValida
$LN8@dateValida:

; 13   : 		return 1;

  000ee	b8 01 00 00 00	 mov	 eax, 1
  000f3	eb 04		 jmp	 SHORT $LN1@dateValida
  000f5	eb 02		 jmp	 SHORT $LN7@dateValida
$LN6@dateValida:

; 14   : 	else return 0;

  000f7	33 c0		 xor	 eax, eax
$LN7@dateValida:
$LN4@dateValida:
$LN1@dateValida:

; 15   : }

  000f9	48 8b f8	 mov	 rdi, rax
  000fc	48 8d 4d e0	 lea	 rcx, QWORD PTR [rbp-32]
  00100	48 8d 15 00 00
	00 00		 lea	 rdx, OFFSET FLAT:?dateValidation@@YAHHHH@Z$rtcFrameData
  00107	e8 00 00 00 00	 call	 _RTC_CheckStackVars
  0010c	48 8b c7	 mov	 rax, rdi
  0010f	48 8d a5 18 01
	00 00		 lea	 rsp, QWORD PTR [rbp+280]
  00116	5f		 pop	 rdi
  00117	5d		 pop	 rbp
  00118	c3		 ret	 0
?dateValidation@@YAHHHH@Z ENDP				; dateValidation
_TEXT	ENDS
; Function compile flags: /Odtp /RTCsu /ZI
; File D:\1 КУРС\2sem\KPO labs\01_Командная строка_Несколько файлов\time check\time check\dateValidation.cpp
;	COMDAT ?__empty_global_delete@@YAXPEAX_K@Z
_TEXT	SEGMENT
__formal$ = 224
__formal$ = 232
?__empty_global_delete@@YAXPEAX_K@Z PROC		; __empty_global_delete, COMDAT

$LN3:
  00000	48 89 54 24 10	 mov	 QWORD PTR [rsp+16], rdx
  00005	48 89 4c 24 08	 mov	 QWORD PTR [rsp+8], rcx
  0000a	55		 push	 rbp
  0000b	57		 push	 rdi
  0000c	48 81 ec e8 00
	00 00		 sub	 rsp, 232		; 000000e8H
  00013	48 8d 6c 24 20	 lea	 rbp, QWORD PTR [rsp+32]
  00018	48 8d 0d 00 00
	00 00		 lea	 rcx, OFFSET FLAT:__990416BB_dateValidation@cpp
  0001f	e8 00 00 00 00	 call	 __CheckForDebuggerJustMyCode
  00024	48 8d a5 c8 00
	00 00		 lea	 rsp, QWORD PTR [rbp+200]
  0002b	5f		 pop	 rdi
  0002c	5d		 pop	 rbp
  0002d	c3		 ret	 0
?__empty_global_delete@@YAXPEAX_K@Z ENDP		; __empty_global_delete
_TEXT	ENDS
; Function compile flags: /Odtp /RTCsu /ZI
; File D:\1 КУРС\2sem\KPO labs\01_Командная строка_Несколько файлов\time check\time check\dateValidation.cpp
;	COMDAT ?__empty_global_delete@@YAXPEAX@Z
_TEXT	SEGMENT
__formal$ = 224
?__empty_global_delete@@YAXPEAX@Z PROC			; __empty_global_delete, COMDAT

$LN3:
  00000	48 89 4c 24 08	 mov	 QWORD PTR [rsp+8], rcx
  00005	55		 push	 rbp
  00006	57		 push	 rdi
  00007	48 81 ec e8 00
	00 00		 sub	 rsp, 232		; 000000e8H
  0000e	48 8d 6c 24 20	 lea	 rbp, QWORD PTR [rsp+32]
  00013	48 8d 0d 00 00
	00 00		 lea	 rcx, OFFSET FLAT:__990416BB_dateValidation@cpp
  0001a	e8 00 00 00 00	 call	 __CheckForDebuggerJustMyCode
  0001f	48 8d a5 c8 00
	00 00		 lea	 rsp, QWORD PTR [rbp+200]
  00026	5f		 pop	 rdi
  00027	5d		 pop	 rbp
  00028	c3		 ret	 0
?__empty_global_delete@@YAXPEAX@Z ENDP			; __empty_global_delete
_TEXT	ENDS
END
