; Listing generated by Microsoft (R) Optimizing Compiler Version 19.34.31942.0 

include listing.inc

INCLUDELIB MSVCRTD
INCLUDELIB OLDNAMES

msvcjmc	SEGMENT
__8B0F6F0C_time check@pch DB 01H
__909E03D7_leapYear@cpp DB 01H
__64F4EB01_stdafx@h DB 01H
__5DAC896E_stdafx@cpp DB 01H
msvcjmc	ENDS
PUBLIC	?__empty_global_delete@@YAXPEAX@Z		; __empty_global_delete
PUBLIC	?__empty_global_delete@@YAXPEAX_K@Z		; __empty_global_delete
PUBLIC	?leapYear@@YAHH@Z				; leapYear
PUBLIC	__JustMyCode_Default
EXTRN	_RTC_InitBase:PROC
EXTRN	_RTC_Shutdown:PROC
EXTRN	__CheckForDebuggerJustMyCode:PROC
;	COMDAT pdata
pdata	SEGMENT
$pdata$?__empty_global_delete@@YAXPEAX@Z DD imagerel $LN3
	DD	imagerel $LN3+41
	DD	imagerel $unwind$?__empty_global_delete@@YAXPEAX@Z
pdata	ENDS
;	COMDAT pdata
pdata	SEGMENT
$pdata$?__empty_global_delete@@YAXPEAX_K@Z DD imagerel $LN3
	DD	imagerel $LN3+46
	DD	imagerel $unwind$?__empty_global_delete@@YAXPEAX_K@Z
pdata	ENDS
;	COMDAT pdata
pdata	SEGMENT
$pdata$?leapYear@@YAHH@Z DD imagerel $LN6
	DD	imagerel $LN6+112
	DD	imagerel $unwind$?leapYear@@YAHH@Z
pdata	ENDS
;	COMDAT rtc$TMZ
rtc$TMZ	SEGMENT
_RTC_Shutdown.rtc$TMZ DQ FLAT:_RTC_Shutdown
rtc$TMZ	ENDS
;	COMDAT rtc$IMZ
rtc$IMZ	SEGMENT
_RTC_InitBase.rtc$IMZ DQ FLAT:_RTC_InitBase
rtc$IMZ	ENDS
;	COMDAT xdata
xdata	SEGMENT
$unwind$?leapYear@@YAHH@Z DD 025051201H
	DD	010d2312H
	DD	07006001dH
	DD	05005H
xdata	ENDS
;	COMDAT xdata
xdata	SEGMENT
$unwind$?__empty_global_delete@@YAXPEAX_K@Z DD 025051801H
	DD	01132318H
	DD	0700c001dH
	DD	0500bH
xdata	ENDS
;	COMDAT xdata
xdata	SEGMENT
$unwind$?__empty_global_delete@@YAXPEAX@Z DD 025051301H
	DD	010e2313H
	DD	07007001dH
	DD	05006H
xdata	ENDS
; Function compile flags: /Odt
;	COMDAT __JustMyCode_Default
_TEXT	SEGMENT
__JustMyCode_Default PROC				; COMDAT
  00000	c2 00 00	 ret	 0
__JustMyCode_Default ENDP
_TEXT	ENDS
; Function compile flags: /Odtp /RTCsu /ZI
; File D:\1 КУРС\2sem\KPO labs\01_Командная строка_Несколько файлов\time check\time check\leapYear.cpp
;	COMDAT ?leapYear@@YAHH@Z
_TEXT	SEGMENT
year$ = 224
?leapYear@@YAHH@Z PROC					; leapYear, COMDAT

; 5    : {

$LN6:
  00000	89 4c 24 08	 mov	 DWORD PTR [rsp+8], ecx
  00004	55		 push	 rbp
  00005	57		 push	 rdi
  00006	48 81 ec e8 00
	00 00		 sub	 rsp, 232		; 000000e8H
  0000d	48 8d 6c 24 20	 lea	 rbp, QWORD PTR [rsp+32]
  00012	48 8d 0d 00 00
	00 00		 lea	 rcx, OFFSET FLAT:__909E03D7_leapYear@cpp
  00019	e8 00 00 00 00	 call	 __CheckForDebuggerJustMyCode

; 6    : 	if (year % 400 == 0 || (year % 4 == 0 && year % 100 != 0))

  0001e	8b 85 e0 00 00
	00		 mov	 eax, DWORD PTR year$[rbp]
  00024	99		 cdq
  00025	b9 90 01 00 00	 mov	 ecx, 400		; 00000190H
  0002a	f7 f9		 idiv	 ecx
  0002c	8b c2		 mov	 eax, edx
  0002e	85 c0		 test	 eax, eax
  00030	74 29		 je	 SHORT $LN4@leapYear
  00032	8b 85 e0 00 00
	00		 mov	 eax, DWORD PTR year$[rbp]
  00038	99		 cdq
  00039	83 e2 03	 and	 edx, 3
  0003c	03 c2		 add	 eax, edx
  0003e	83 e0 03	 and	 eax, 3
  00041	2b c2		 sub	 eax, edx
  00043	85 c0		 test	 eax, eax
  00045	75 1d		 jne	 SHORT $LN2@leapYear
  00047	8b 85 e0 00 00
	00		 mov	 eax, DWORD PTR year$[rbp]
  0004d	99		 cdq
  0004e	b9 64 00 00 00	 mov	 ecx, 100		; 00000064H
  00053	f7 f9		 idiv	 ecx
  00055	8b c2		 mov	 eax, edx
  00057	85 c0		 test	 eax, eax
  00059	74 09		 je	 SHORT $LN2@leapYear
$LN4@leapYear:

; 7    : 		return 1;

  0005b	b8 01 00 00 00	 mov	 eax, 1
  00060	eb 04		 jmp	 SHORT $LN1@leapYear
  00062	eb 02		 jmp	 SHORT $LN3@leapYear
$LN2@leapYear:

; 8    : 	else return 0;

  00064	33 c0		 xor	 eax, eax
$LN3@leapYear:
$LN1@leapYear:

; 9    : }

  00066	48 8d a5 c8 00
	00 00		 lea	 rsp, QWORD PTR [rbp+200]
  0006d	5f		 pop	 rdi
  0006e	5d		 pop	 rbp
  0006f	c3		 ret	 0
?leapYear@@YAHH@Z ENDP					; leapYear
_TEXT	ENDS
; Function compile flags: /Odtp /RTCsu /ZI
; File D:\1 КУРС\2sem\KPO labs\01_Командная строка_Несколько файлов\time check\time check\leapYear.cpp
;	COMDAT ?__empty_global_delete@@YAXPEAX_K@Z
_TEXT	SEGMENT
__formal$ = 224
__formal$ = 232
?__empty_global_delete@@YAXPEAX_K@Z PROC		; __empty_global_delete, COMDAT

$LN3:
  00000	48 89 54 24 10	 mov	 QWORD PTR [rsp+16], rdx
  00005	48 89 4c 24 08	 mov	 QWORD PTR [rsp+8], rcx
  0000a	55		 push	 rbp
  0000b	57		 push	 rdi
  0000c	48 81 ec e8 00
	00 00		 sub	 rsp, 232		; 000000e8H
  00013	48 8d 6c 24 20	 lea	 rbp, QWORD PTR [rsp+32]
  00018	48 8d 0d 00 00
	00 00		 lea	 rcx, OFFSET FLAT:__909E03D7_leapYear@cpp
  0001f	e8 00 00 00 00	 call	 __CheckForDebuggerJustMyCode
  00024	48 8d a5 c8 00
	00 00		 lea	 rsp, QWORD PTR [rbp+200]
  0002b	5f		 pop	 rdi
  0002c	5d		 pop	 rbp
  0002d	c3		 ret	 0
?__empty_global_delete@@YAXPEAX_K@Z ENDP		; __empty_global_delete
_TEXT	ENDS
; Function compile flags: /Odtp /RTCsu /ZI
; File D:\1 КУРС\2sem\KPO labs\01_Командная строка_Несколько файлов\time check\time check\leapYear.cpp
;	COMDAT ?__empty_global_delete@@YAXPEAX@Z
_TEXT	SEGMENT
__formal$ = 224
?__empty_global_delete@@YAXPEAX@Z PROC			; __empty_global_delete, COMDAT

$LN3:
  00000	48 89 4c 24 08	 mov	 QWORD PTR [rsp+8], rcx
  00005	55		 push	 rbp
  00006	57		 push	 rdi
  00007	48 81 ec e8 00
	00 00		 sub	 rsp, 232		; 000000e8H
  0000e	48 8d 6c 24 20	 lea	 rbp, QWORD PTR [rsp+32]
  00013	48 8d 0d 00 00
	00 00		 lea	 rcx, OFFSET FLAT:__909E03D7_leapYear@cpp
  0001a	e8 00 00 00 00	 call	 __CheckForDebuggerJustMyCode
  0001f	48 8d a5 c8 00
	00 00		 lea	 rsp, QWORD PTR [rbp+200]
  00026	5f		 pop	 rdi
  00027	5d		 pop	 rbp
  00028	c3		 ret	 0
?__empty_global_delete@@YAXPEAX@Z ENDP			; __empty_global_delete
_TEXT	ENDS
END
