; Listing generated by Microsoft (R) Optimizing Compiler Version 19.34.31942.0 

include listing.inc

INCLUDELIB MSVCRTD
INCLUDELIB OLDNAMES

PUBLIC	__@@_PchSym_@00@UBLKmzKopKmyKrwKmyKrzKmyKryUChvnUpklLozyhUABPKmzKopKmzKolKmzKonKmzKozKmzKomKmzKovKmzKomKmzKozKmyKrkLKmyKryKmyKrxKmyKrzKmzKolKmzKopKmzKozPKmzKomKmzKouKmyKryKmzKopKmzKolKmzKooKmyKrnKmzKopKmzKolLKmyKrvKmzKozKmzKoqKmzKooKmzKolKmzKoxUgrnvLxsvxpUgrnvLxsvxpUcGEUwvyftUhgwzucOlyq@4B2008FD98C1DD4
;	COMDAT __@@_PchSym_@00@UBLKmzKopKmyKrwKmyKrzKmyKryUChvnUpklLozyhUABPKmzKopKmzKolKmzKonKmzKozKmzKomKmzKovKmzKomKmzKozKmyKrkLKmyKryKmyKrxKmyKrzKmzKolKmzKopKmzKozPKmzKomKmzKouKmyKryKmzKopKmzKolKmzKooKmyKrnKmzKopKmzKolLKmyKrvKmzKozKmzKoqKmzKooKmzKolKmzKoxUgrnvLxsvxpUgrnvLxsvxpUcGEUwvyftUhgwzucOlyq@4B2008FD98C1DD4
_BSS	SEGMENT
__@@_PchSym_@00@UBLKmzKopKmyKrwKmyKrzKmyKryUChvnUpklLozyhUABPKmzKopKmzKolKmzKonKmzKozKmzKomKmzKovKmzKomKmzKozKmyKrkLKmyKryKmyKrxKmyKrzKmzKolKmzKopKmzKozPKmzKomKmzKouKmyKryKmzKopKmzKolKmzKooKmyKrnKmzKopKmzKolLKmyKrvKmzKozKmzKoqKmzKooKmzKolKmzKoxUgrnvLxsvxpUgrnvLxsvxpUcGEUwvyftUhgwzucOlyq@4B2008FD98C1DD4 DD 01H DUP (?)
_BSS	ENDS
msvcjmc	SEGMENT
__6FBB7BF0_concurrencysal@h DB 01H
__C5311785_sal@h DB 01H
__C635F92F_vadefs@h DB 01H
__F2DDA618_vcruntime@h DB 01H
__1600E305_xkeycheck@h DB 01H
__D74549BD_yvals_core@h DB 01H
__004EB976_limits@h DB 01H
__DCBB2D08_climits DB 01H
__04C75F1C_corecrt@h DB 01H
__756BC4A6_vcruntime_new@h DB 01H
__284B4AA2_vcruntime_new_debug@h DB 01H
__8CF369C8_crtdbg@h DB 01H
__B2BF174A_crtdefs@h DB 01H
__8A7BA113_use_ansi@h DB 01H
__EE14B945_yvals@h DB 01H
__92857972_corecrt_math@h DB 01H
__A29DED85_math@h DB 01H
__494656A0_corecrt_malloc@h DB 01H
__0C5B3DCC_stddef@h DB 01H
__F1F53BCE_corecrt_search@h DB 01H
__DD5AA43A_corecrt_wstdlib@h DB 01H
__71F46169_stdlib@h DB 01H
__58540FFA_cstdlib DB 01H
__7175935A_xtr1common DB 01H
__1D07A648_intrin0@inl@h DB 01H
__AB92AE41_intrin0@h DB 01H
__A78B1932_cmath DB 01H
__C44F8F6B_corecrt_stdio_config@h DB 01H
__A7F89B2B_corecrt_wstdio@h DB 01H
__B5C48800_stdio@h DB 01H
__A857BA2F_cstdio DB 01H
__15E49872_errno@h DB 01H
__14974F68_vcruntime_string@h DB 01H
__184F7456_corecrt_memcpy_s@h DB 01H
__82377222_corecrt_memory@h DB 01H
__5B29309E_corecrt_wstring@h DB 01H
__F787F5CD_string@h DB 01H
__14C6A71A_cstring DB 01H
__E387ED1C_corecrt_wconio@h DB 01H
__78D0C915_corecrt_wctype@h DB 01H
__02A4DD57_corecrt_wdirect@h DB 01H
__A056EFF3_corecrt_share@h DB 01H
__91FC0EDF_corecrt_wio@h DB 01H
__6619318A_corecrt_wprocess@h DB 01H
__18070508_corecrt_wtime@h DB 01H
__3D2AFB26_types@h DB 01H
__72103B05_stat@h DB 01H
__4BE26BFD_wchar@h DB 01H
__32DC6C7C_cwchar DB 01H
__FD9FD557_cstddef DB 01H
__757D0DC3_initializer_list DB 01H
__98461D63_xstddef DB 01H
__711CE94A_iosfwd DB 01H
__BE389749_stdint@h DB 01H
__E50AEE87_cstdint DB 01H
__58A925CE_type_traits DB 01H
__6F598A71_utility DB 01H
__CA2B0A59___msvc_iter_core@hpp DB 01H
__D2E0EFB4_xutility DB 01H
__C34C58F4_iterator DB 01H
__83BF90D8_share@h DB 01H
__56CAEEBE___msvc_system_error_abi@hpp DB 01H
__3576CED4_cerrno DB 01H
__E5D9469F_malloc@h DB 01H
__C78E68C1_corecrt_terminate@h DB 01H
__AC7FC13E_eh@h DB 01H
__20A54FF0_vcruntime_exception@h DB 01H
__7AE079DC_exception DB 01H
__CDB0EEF0_float@h DB 01H
__DB1371A8_cfloat DB 01H
__C71C451B_isa_availability@h DB 01H
__BDF53CCC_limits DB 01H
__687406BF_new DB 01H
__70ECF50A_xatomic@h DB 01H
__05CCE9B2_xmemory DB 01H
__711F6F2E_xstring DB 01H
__F3AE4381_stdexcept DB 01H
__94DD97ED_xcall_once@h DB 01H
__4681AC4A_xerrc@h DB 01H
__93FD7E51_time@h DB 01H
__6138853A_ctime DB 01H
__64240CF5_xtimec@h DB 01H
__EB3596A0_xthreads@h DB 01H
__D6C0600E_atomic DB 01H
__2B8085CD_system_error DB 01H
__DEC5ECC6_vcruntime_typeinfo@h DB 01H
__A23F1CAD_typeinfo DB 01H
__015B3042_memory DB 01H
__2D1E674D_xfacet DB 01H
__361C6E6F___msvc_xlocinfo_types@hpp DB 01H
__6AECDA3E_ctype@h DB 01H
__A79C5D88_cctype DB 01H
__66B29864_locale@h DB 01H
__CBF8D32B_clocale DB 01H
__BDB6FF65_xlocinfo DB 01H
__AE211B1F_xlocale DB 01H
__84538876_xiosbase DB 01H
__F10EFB3D_streambuf DB 01H
__30A67D08_xlocnum DB 01H
__90B93CA9_ios DB 01H
__BD31C1DB_ostream DB 01H
__DEE1F4E1_istream DB 01H
__B09995AB_iostream DB 01H
__64F4EB01_stdafx@h DB 01H
__8B0F6F0C_time check@pch DB 01H
__5DAC896E_stdafx@cpp DB 01H
msvcjmc	ENDS
PUBLIC	?__empty_global_delete@@YAXPEAX@Z		; __empty_global_delete
PUBLIC	?__empty_global_delete@@YAXPEAX_K@Z		; __empty_global_delete
PUBLIC	__JustMyCode_Default
EXTRN	_RTC_InitBase:PROC
EXTRN	_RTC_Shutdown:PROC
EXTRN	__CheckForDebuggerJustMyCode:PROC
;	COMDAT pdata
pdata	SEGMENT
$pdata$?__empty_global_delete@@YAXPEAX@Z DD imagerel $LN3
	DD	imagerel $LN3+41
	DD	imagerel $unwind$?__empty_global_delete@@YAXPEAX@Z
pdata	ENDS
;	COMDAT pdata
pdata	SEGMENT
$pdata$?__empty_global_delete@@YAXPEAX_K@Z DD imagerel $LN3
	DD	imagerel $LN3+46
	DD	imagerel $unwind$?__empty_global_delete@@YAXPEAX_K@Z
pdata	ENDS
;	COMDAT rtc$TMZ
rtc$TMZ	SEGMENT
_RTC_Shutdown.rtc$TMZ DQ FLAT:_RTC_Shutdown
rtc$TMZ	ENDS
;	COMDAT rtc$IMZ
rtc$IMZ	SEGMENT
_RTC_InitBase.rtc$IMZ DQ FLAT:_RTC_InitBase
rtc$IMZ	ENDS
;	COMDAT xdata
xdata	SEGMENT
$unwind$?__empty_global_delete@@YAXPEAX_K@Z DD 025051801H
	DD	01132318H
	DD	0700c001dH
	DD	0500bH
xdata	ENDS
;	COMDAT xdata
xdata	SEGMENT
$unwind$?__empty_global_delete@@YAXPEAX@Z DD 025051301H
	DD	010e2313H
	DD	07007001dH
	DD	05006H
xdata	ENDS
; Function compile flags: /Odt
;	COMDAT __JustMyCode_Default
_TEXT	SEGMENT
__JustMyCode_Default PROC				; COMDAT
  00000	c2 00 00	 ret	 0
__JustMyCode_Default ENDP
_TEXT	ENDS
; Function compile flags: /Odtp /RTCsu /ZI
; File D:\1 КУРС\2sem\KPO labs\01_Командная строка_Несколько файлов\time check\time check\stdafx.cpp
;	COMDAT ?__empty_global_delete@@YAXPEAX_K@Z
_TEXT	SEGMENT
__formal$ = 224
__formal$ = 232
?__empty_global_delete@@YAXPEAX_K@Z PROC		; __empty_global_delete, COMDAT

$LN3:
  00000	48 89 54 24 10	 mov	 QWORD PTR [rsp+16], rdx
  00005	48 89 4c 24 08	 mov	 QWORD PTR [rsp+8], rcx
  0000a	55		 push	 rbp
  0000b	57		 push	 rdi
  0000c	48 81 ec e8 00
	00 00		 sub	 rsp, 232		; 000000e8H
  00013	48 8d 6c 24 20	 lea	 rbp, QWORD PTR [rsp+32]
  00018	48 8d 0d 00 00
	00 00		 lea	 rcx, OFFSET FLAT:__5DAC896E_stdafx@cpp
  0001f	e8 00 00 00 00	 call	 __CheckForDebuggerJustMyCode
  00024	48 8d a5 c8 00
	00 00		 lea	 rsp, QWORD PTR [rbp+200]
  0002b	5f		 pop	 rdi
  0002c	5d		 pop	 rbp
  0002d	c3		 ret	 0
?__empty_global_delete@@YAXPEAX_K@Z ENDP		; __empty_global_delete
_TEXT	ENDS
; Function compile flags: /Odtp /RTCsu /ZI
; File D:\1 КУРС\2sem\KPO labs\01_Командная строка_Несколько файлов\time check\time check\stdafx.cpp
;	COMDAT ?__empty_global_delete@@YAXPEAX@Z
_TEXT	SEGMENT
__formal$ = 224
?__empty_global_delete@@YAXPEAX@Z PROC			; __empty_global_delete, COMDAT

$LN3:
  00000	48 89 4c 24 08	 mov	 QWORD PTR [rsp+8], rcx
  00005	55		 push	 rbp
  00006	57		 push	 rdi
  00007	48 81 ec e8 00
	00 00		 sub	 rsp, 232		; 000000e8H
  0000e	48 8d 6c 24 20	 lea	 rbp, QWORD PTR [rsp+32]
  00013	48 8d 0d 00 00
	00 00		 lea	 rcx, OFFSET FLAT:__5DAC896E_stdafx@cpp
  0001a	e8 00 00 00 00	 call	 __CheckForDebuggerJustMyCode
  0001f	48 8d a5 c8 00
	00 00		 lea	 rsp, QWORD PTR [rbp+200]
  00026	5f		 pop	 rdi
  00027	5d		 pop	 rbp
  00028	c3		 ret	 0
?__empty_global_delete@@YAXPEAX@Z ENDP			; __empty_global_delete
_TEXT	ENDS
END
